target datalayout = "e-m:e-p270:32:32-p271:32:32-p272:64:64-i64:64-i128:128-f80:128-n8:16:32:64-S128"
target triple = "x86_64-pc-linux-gnu"

@stderr = external global ptr, align 8
@qemuio_misalign = dso_local global i8 0, align 1
@.str.19 = private unnamed_addr constant [2 x i8] c"r\00", align 1
@error_abort = external global ptr, align 8
@.str.78 = private unnamed_addr constant [19 x i8] c"%s: file is empty\0A\00", align 1

; Function Attrs: nounwind sspstrong uwtable
define internal void @qemu_io_free(ptr noundef %0, ptr noundef %1, i64 noundef %2, i1 noundef zeroext %3) #0 {
  %5 = alloca ptr, align 8
  %6 = alloca ptr, align 8
  %7 = alloca i64, align 8
  %8 = alloca i8, align 1
  store ptr %0, ptr %5, align 8
  store ptr %1, ptr %6, align 8
  store i64 %2, ptr %7, align 8
  %9 = zext i1 %3 to i8
  store i8 %9, ptr %8, align 1
  %10 = load i8, ptr @qemuio_misalign, align 1, !range !11, !noundef !12
  %11 = trunc i8 %10 to i1
  br i1 %11, label %12, label %17

12:                                               ; preds = %4
  %13 = load ptr, ptr %6, align 8
  %14 = getelementptr inbounds i8, ptr %13, i64 -16
  store ptr %14, ptr %6, align 8
  %15 = load i64, ptr %7, align 8
  %16 = add i64 %15, 16
  store i64 %16, ptr %7, align 8
  br label %17

17:                                               ; preds = %12, %4
  %18 = load i8, ptr %8, align 1, !range !11, !noundef !12
  %19 = trunc i8 %18 to i1
  br i1 %19, label %20, label %24

20:                                               ; preds = %17
  %21 = load ptr, ptr %5, align 8
  %22 = load ptr, ptr %6, align 8
  %23 = load i64, ptr %7, align 8
  call void @blk_unregister_buf(ptr noundef %21, ptr noundef %22, i64 noundef %23)
  br label %24

24:                                               ; preds = %20, %17
  %25 = load ptr, ptr %6, align 8
  call void @qemu_vfree(ptr noundef %25)
  ret void
}

; Function Attrs: alwaysinline nounwind
define internal ptr @memcpy.inline(ptr noalias nonnull %0, ptr noalias nonnull %1, i64 %2) #12 {
  %4 = alloca ptr, align 8
  %5 = alloca ptr, align 8
  %6 = alloca i64, align 8
  store ptr %0, ptr %4, align 8
  store ptr %1, ptr %5, align 8
  store i64 %2, ptr %6, align 8
  %7 = load ptr, ptr %4, align 8
  %8 = load ptr, ptr %5, align 8
  %9 = load i64, ptr %6, align 8
  %10 = load ptr, ptr %4, align 8
  %11 = call i64 @llvm.objectsize.i64.p0(ptr %10, i1 false, i1 true, i1 false)
  %12 = call ptr @__memcpy_chk(ptr noundef %7, ptr noundef %8, i64 noundef %9, i64 noundef %11) #18
  ret ptr %12
}

; Function Attrs: alwaysinline
define internal i64 @fread.inline(ptr noalias %0, i64 %1, i64 %2, ptr noalias %3) #16 {
  %5 = alloca i64, align 8
  %6 = alloca ptr, align 8
  %7 = alloca i64, align 8
  %8 = alloca i64, align 8
  %9 = alloca ptr, align 8
  %10 = alloca i64, align 8
  %11 = alloca i32, align 4
  store ptr %0, ptr %6, align 8
  store i64 %1, ptr %7, align 8
  store i64 %2, ptr %8, align 8
  store ptr %3, ptr %9, align 8
  call void @llvm.lifetime.start.p0(i64 8, ptr %10) #18
  %12 = load ptr, ptr %6, align 8
  %13 = call i64 @llvm.objectsize.i64.p0(ptr %12, i1 false, i1 true, i1 false)
  store i64 %13, ptr %10, align 8
  %14 = load i64, ptr %8, align 8
  %15 = load i64, ptr %10, align 8
  %16 = load i64, ptr %7, align 8
  %17 = udiv i64 %15, %16
  %18 = icmp ule i64 %14, %17
  %19 = zext i1 %18 to i32
  %20 = call i1 @llvm.is.constant.i32(i32 %19)
  br i1 %20, label %21, label %33

21:                                               ; preds = %4
  %22 = load i64, ptr %8, align 8
  %23 = load i64, ptr %10, align 8
  %24 = load i64, ptr %7, align 8
  %25 = udiv i64 %23, %24
  %26 = icmp ule i64 %22, %25
  br i1 %26, label %27, label %33

27:                                               ; preds = %21
  %28 = load ptr, ptr %6, align 8
  %29 = load i64, ptr %7, align 8
  %30 = load i64, ptr %8, align 8
  %31 = load ptr, ptr %9, align 8
  %32 = call i64 @fread(ptr noundef %28, i64 noundef %29, i64 noundef %30, ptr noundef %31)
  store i64 %32, ptr %5, align 8
  store i32 1, ptr %11, align 4
  br label %61

33:                                               ; preds = %21, %4
  %34 = load i64, ptr %8, align 8
  %35 = load i64, ptr %10, align 8
  %36 = load i64, ptr %7, align 8
  %37 = udiv i64 %35, %36
  %38 = icmp ule i64 %34, %37
  %39 = zext i1 %38 to i32
  %40 = call i1 @llvm.is.constant.i32(i32 %39)
  br i1 %40, label %41, label %54

41:                                               ; preds = %33
  %42 = load i64, ptr %8, align 8
  %43 = load i64, ptr %10, align 8
  %44 = load i64, ptr %7, align 8
  %45 = udiv i64 %43, %44
  %46 = icmp ule i64 %42, %45
  br i1 %46, label %54, label %47

47:                                               ; preds = %41
  %48 = load ptr, ptr %6, align 8
  %49 = load i64, ptr %10, align 8
  %50 = load i64, ptr %7, align 8
  %51 = load i64, ptr %8, align 8
  %52 = load ptr, ptr %9, align 8
  %53 = call i64 @__fread_chk(ptr noundef %48, i64 noundef %49, i64 noundef %50, i64 noundef %51, ptr noundef %52)
  store i64 %53, ptr %5, align 8
  store i32 1, ptr %11, align 4
  br label %61

54:                                               ; preds = %41, %33
  %55 = load ptr, ptr %6, align 8
  %56 = load i64, ptr %10, align 8
  %57 = load i64, ptr %7, align 8
  %58 = load i64, ptr %8, align 8
  %59 = load ptr, ptr %9, align 8
  %60 = call i64 @__fread_chk(ptr noundef %55, i64 noundef %56, i64 noundef %57, i64 noundef %58, ptr noundef %59)
  store i64 %60, ptr %5, align 8
  store i32 1, ptr %11, align 4
  br label %61

61:                                               ; preds = %54, %47, %27
  call void @llvm.lifetime.end.p0(i64 8, ptr %10) #18
  %62 = load i64, ptr %5, align 8
  ret i64 %62
}

; Function Attrs: nounwind sspstrong uwtable
define internal ptr @qemu_io_alloc_from_file(ptr noundef %0, i64 noundef %1, ptr noundef %2, i1 noundef zeroext %3) #0 {
  %5 = alloca ptr, align 8
  %6 = alloca ptr, align 8
  %7 = alloca i64, align 8
  %8 = alloca ptr, align 8
  %9 = alloca i8, align 1
  %10 = alloca i64, align 8
  %11 = alloca ptr, align 8
  %12 = alloca ptr, align 8
  %13 = alloca ptr, align 8
  %14 = alloca ptr, align 8
  %15 = alloca i32, align 4
  %16 = alloca i32, align 4
  %17 = alloca ptr, align 8
  %18 = alloca i64, align 8
  %19 = alloca i64, align 8
  %20 = alloca i64, align 8
  store ptr %0, ptr %6, align 8
  store i64 %1, ptr %7, align 8
  store ptr %2, ptr %8, align 8
  %21 = zext i1 %3 to i8
  store i8 %21, ptr %9, align 1
  call void @llvm.lifetime.start.p0(i64 8, ptr %10) #18
  %22 = load i64, ptr %7, align 8
  %23 = load i8, ptr @qemuio_misalign, align 1, !range !11, !noundef !12
  %24 = trunc i8 %23 to i1
  %25 = select i1 %24, i32 16, i32 0
  %26 = sext i32 %25 to i64
  %27 = add i64 %22, %26
  store i64 %27, ptr %10, align 8
  call void @llvm.lifetime.start.p0(i64 8, ptr %11) #18
  store ptr null, ptr %11, align 8, !annotation !4
  call void @llvm.lifetime.start.p0(i64 8, ptr %12) #18
  store ptr null, ptr %12, align 8, !annotation !4
  call void @llvm.lifetime.start.p0(i64 8, ptr %13) #18
  store ptr null, ptr %13, align 8, !annotation !4
  call void @llvm.lifetime.start.p0(i64 8, ptr %14) #18
  %28 = load ptr, ptr %8, align 8
  %29 = call noalias ptr @fopen64(ptr noundef %28, ptr noundef @.str.19)
  store ptr %29, ptr %14, align 8
  call void @llvm.lifetime.start.p0(i64 4, ptr %15) #18
  store i32 0, ptr %15, align 4, !annotation !4
  %30 = load ptr, ptr %14, align 8
  %31 = icmp ne ptr %30, null
  br i1 %31, label %34, label %32

32:                                               ; preds = %4
  %33 = load ptr, ptr %8, align 8
  call void @perror(ptr noundef %33)
  store ptr null, ptr %5, align 8
  store i32 1, ptr %16, align 4
  br label %122

34:                                               ; preds = %4
  %35 = load ptr, ptr %6, align 8
  %36 = load i64, ptr %10, align 8
  %37 = call ptr @blk_blockalign(ptr noundef %35, i64 noundef %36)
  store ptr %37, ptr %12, align 8
  store ptr %37, ptr %11, align 8
  %38 = load i8, ptr @qemuio_misalign, align 1, !range !11, !noundef !12
  %39 = trunc i8 %38 to i1
  br i1 %39, label %40, label %43

40:                                               ; preds = %34
  %41 = load ptr, ptr %12, align 8
  %42 = getelementptr inbounds i8, ptr %41, i64 16
  store ptr %42, ptr %12, align 8
  br label %43

43:                                               ; preds = %40, %34
  %44 = load ptr, ptr %12, align 8
  %45 = load i64, ptr %7, align 8
  %46 = load ptr, ptr %14, align 8
  %47 = call i64 @fread.inline(ptr noundef %44, i64 noundef 1, i64 noundef %45, ptr noundef %46)
  %48 = trunc i64 %47 to i32
  store i32 %48, ptr %15, align 4
  %49 = load ptr, ptr %14, align 8
  %50 = call i32 @ferror(ptr noundef %49) #18
  %51 = icmp ne i32 %50, 0
  br i1 %51, label %52, label %54

52:                                               ; preds = %43
  %53 = load ptr, ptr %8, align 8
  call void @perror(ptr noundef %53)
  br label %112

54:                                               ; preds = %43
  %55 = load i32, ptr %15, align 4
  %56 = icmp eq i32 %55, 0
  br i1 %56, label %57, label %61

57:                                               ; preds = %54
  %58 = load ptr, ptr @stderr, align 8
  %59 = load ptr, ptr %8, align 8
  %60 = call i32 (ptr, i32, ptr, ...) @__fprintf_chk(ptr noundef %58, i32 noundef 1, ptr noundef @.str.78, ptr noundef %59)
  br label %112

61:                                               ; preds = %54
  %62 = load ptr, ptr %14, align 8
  %63 = call i32 @fclose(ptr noundef %62)
  store ptr null, ptr %14, align 8
  %64 = load i8, ptr %9, align 1, !range !11, !noundef !12
  %65 = trunc i8 %64 to i1
  br i1 %65, label %66, label %71

66:                                               ; preds = %61
  %67 = load ptr, ptr %6, align 8
  %68 = load ptr, ptr %11, align 8
  %69 = load i64, ptr %10, align 8
  %70 = call zeroext i1 @blk_register_buf(ptr noundef %67, ptr noundef %68, i64 noundef %69, ptr noundef @error_abort)
  br label %71

71:                                               ; preds = %66, %61
  %72 = load ptr, ptr %12, align 8
  %73 = load i64, ptr %7, align 8
  %74 = getelementptr inbounds nuw i8, ptr %72, i64 %73
  store ptr %74, ptr %13, align 8
  call void @llvm.lifetime.start.p0(i64 8, ptr %17) #18
  %75 = load ptr, ptr %12, align 8
  %76 = load i32, ptr %15, align 4
  %77 = sext i32 %76 to i64
  %78 = getelementptr inbounds i8, ptr %75, i64 %77
  store ptr %78, ptr %17, align 8
  br label %79

79:                                               ; preds = %105, %71
  %80 = load ptr, ptr %17, align 8
  %81 = load ptr, ptr %13, align 8
  %82 = icmp ult ptr %80, %81
  br i1 %82, label %84, label %83

83:                                               ; preds = %79
  store i32 3, ptr %16, align 4
  call void @llvm.lifetime.end.p0(i64 8, ptr %17) #18
  br label %110

84:                                               ; preds = %79
  %85 = load ptr, ptr %17, align 8
  %86 = load ptr, ptr %12, align 8
  call void @llvm.lifetime.start.p0(i64 8, ptr %18) #18
  %87 = load i32, ptr %15, align 4
  %88 = sext i32 %87 to i64
  store i64 %88, ptr %18, align 8
  call void @llvm.lifetime.start.p0(i64 8, ptr %19) #18
  %89 = load ptr, ptr %13, align 8
  %90 = load ptr, ptr %17, align 8
  %91 = ptrtoint ptr %89 to i64
  %92 = ptrtoint ptr %90 to i64
  %93 = sub i64 %91, %92
  store i64 %93, ptr %19, align 8
  %94 = load i64, ptr %18, align 8
  %95 = load i64, ptr %19, align 8
  %96 = icmp slt i64 %94, %95
  br i1 %96, label %97, label %99

97:                                               ; preds = %84
  %98 = load i64, ptr %18, align 8
  br label %101

99:                                               ; preds = %84
  %100 = load i64, ptr %19, align 8
  br label %101

101:                                              ; preds = %99, %97
  %102 = phi i64 [ %98, %97 ], [ %100, %99 ]
  store i64 %102, ptr %20, align 8
  call void @llvm.lifetime.end.p0(i64 8, ptr %19) #18
  call void @llvm.lifetime.end.p0(i64 8, ptr %18) #18
  %103 = load i64, ptr %20, align 8
  %104 = call ptr @memcpy.inline(ptr noundef %85, ptr noundef %86, i64 noundef %103) #18
  br label %105

105:                                              ; preds = %101
  %106 = load i32, ptr %15, align 4
  %107 = load ptr, ptr %17, align 8
  %108 = sext i32 %106 to i64
  %109 = getelementptr inbounds i8, ptr %107, i64 %108
  store ptr %109, ptr %17, align 8
  br label %79, !llvm.loop !21

110:                                              ; preds = %83
  %111 = load ptr, ptr %12, align 8
  store ptr %111, ptr %5, align 8
  store i32 1, ptr %16, align 4
  br label %122

112:                                              ; preds = %57, %52
  %113 = load ptr, ptr %6, align 8
  %114 = load ptr, ptr %11, align 8
  %115 = load i64, ptr %10, align 8
  call void @qemu_io_free(ptr noundef %113, ptr noundef %114, i64 noundef %115, i1 noundef zeroext false)
  %116 = load ptr, ptr %14, align 8
  %117 = icmp ne ptr %116, null
  br i1 %117, label %118, label %121

118:                                              ; preds = %112
  %119 = load ptr, ptr %14, align 8
  %120 = call i32 @fclose(ptr noundef %119)
  br label %121

121:                                              ; preds = %118, %112
  store ptr null, ptr %5, align 8
  store i32 1, ptr %16, align 4
  br label %122

122:                                              ; preds = %121, %110, %32
  call void @llvm.lifetime.end.p0(i64 4, ptr %15) #18
  call void @llvm.lifetime.end.p0(i64 8, ptr %14) #18
  call void @llvm.lifetime.end.p0(i64 8, ptr %13) #18
  call void @llvm.lifetime.end.p0(i64 8, ptr %12) #18
  call void @llvm.lifetime.end.p0(i64 8, ptr %11) #18
  call void @llvm.lifetime.end.p0(i64 8, ptr %10) #18
  %123 = load ptr, ptr %5, align 8
  ret ptr %123
}