; Function Attrs: nounwind sspstrong uwtable
define internal fastcc ptr @qemu_io_alloc_from_file(ptr noundef %0, i64 noundef range(i64 0, -9223372036854775808) %1, ptr noundef %2, i1 noundef zeroext %3) unnamed_addr #0 {
  %5 = load i8, ptr @qemuio_misalign, align 1, !range !11, !noundef !12
  %6 = trunc nuw i8 %5 to i1
  %7 = select i1 %6, i64 16, i64 0
  %8 = add nuw i64 %7, %1
  %9 = tail call noalias ptr @fopen64(ptr noundef %2, ptr noundef nonnull @.str.19)
  %.not = icmp eq ptr %9, null
  br i1 %.not, label %10, label %fread.inline.exit

10:                                               ; preds = %4
  tail call void @perror(ptr noundef %2) #31
  br label %.loopexit

fread.inline.exit:                                ; preds = %4
  %11 = tail call ptr @blk_blockalign(ptr noundef %0, i64 noundef %8) #26
  %12 = load i8, ptr @qemuio_misalign, align 1, !range !11, !noundef !12
  %13 = trunc nuw i8 %12 to i1
  %spec.select.idx = select i1 %13, i64 16, i64 0
  %spec.select = getelementptr inbounds nuw i8, ptr %11, i64 %spec.select.idx
  %14 = tail call i64 @fread(ptr noundef %spec.select, i64 noundef 1, i64 noundef range(i64 0, -9223372036854775808) %1, ptr noundef nonnull %9)
  %15 = tail call i32 @ferror(ptr noundef nonnull %9) #26
  %.not48 = icmp eq i32 %15, 0
  br i1 %.not48, label %17, label %16

16:                                               ; preds = %fread.inline.exit
  tail call void @perror(ptr noundef %2) #31
  br label %37

17:                                               ; preds = %fread.inline.exit
  %18 = and i64 %14, 4294967295
  %19 = icmp eq i64 %18, 0
  br i1 %19, label %20, label %23

20:                                               ; preds = %17
  %21 = load ptr, ptr @stderr, align 8
  %22 = tail call i32 (ptr, i32, ptr, ...) @__fprintf_chk(ptr noundef %21, i32 noundef 1, ptr noundef nonnull @.str.78, ptr noundef %2) #26
  br label %37

23:                                               ; preds = %17
  %24 = tail call i32 @fclose(ptr noundef nonnull %9)
  br i1 %3, label %25, label %27

25:                                               ; preds = %23
  %26 = tail call zeroext i1 @blk_register_buf(ptr noundef %0, ptr noundef %11, i64 noundef %8, ptr noundef nonnull @error_abort) #26
  br label %27

27:                                               ; preds = %25, %23
  %28 = getelementptr inbounds nuw i8, ptr %spec.select, i64 %1
  %sext = shl i64 %14, 32
  %29 = ashr exact i64 %sext, 32
  %30 = icmp slt i64 %29, %1
  br i1 %30, label %.lr.ph, label %.loopexit

.lr.ph:                                           ; preds = %27
  %.04450 = getelementptr inbounds i8, ptr %spec.select, i64 %29
  %31 = ptrtoint ptr %28 to i64
  br label %32

32:                                               ; preds = %.lr.ph, %32
  %.04451 = phi ptr [ %.04450, %.lr.ph ], [ %.044, %32 ]
  %33 = ptrtoint ptr %.04451 to i64
  %34 = sub i64 %31, %33
  %35 = tail call i64 @llvm.smin.i64(i64 %29, i64 %34)
  tail call void @llvm.memcpy.p0.p0.i64(ptr noundef nonnull align 1 %.04451, ptr noundef nonnull align 1 %spec.select, i64 noundef %35, i1 noundef false) #26
  %.044 = getelementptr inbounds i8, ptr %.04451, i64 %29
  %36 = icmp ult ptr %.044, %28
  br i1 %36, label %32, label %.loopexit, !llvm.loop !21

37:                                               ; preds = %20, %16
  %38 = load i8, ptr @qemuio_misalign, align 1, !range !11, !noundef !12
  %39 = trunc nuw i8 %38 to i1
  %.0.idx.i = select i1 %39, i64 -16, i64 0
  %.0.i49 = getelementptr inbounds i8, ptr %11, i64 %.0.idx.i
  tail call void @qemu_vfree(ptr noundef %.0.i49) #26
  %40 = tail call i32 @fclose(ptr noundef nonnull %9)
  br label %.loopexit

.loopexit:                                        ; preds = %32, %27, %37, %10
  %.0 = phi ptr [ null, %37 ], [ null, %10 ], [ %spec.select, %27 ], [ %spec.select, %32 ]
  ret ptr %.0
}